target datalayout = "e-m:e-p270:32:32-p271:32:32-p272:64:64-i64:64-i128:128-f80:128-n8:16:32:64-S128"
target triple = "x86_64-pc-linux-gnu"

; Function Attrs: nounwind uwtable
define void @stbiw__linear_to_rgbe(ptr noundef %0, ptr noundef %1) #0 {
  %3 = alloca ptr, align 8
  %4 = alloca ptr, align 8
  %5 = alloca i32, align 4
  %6 = alloca float, align 4
  %7 = alloca float, align 4
  store ptr %0, ptr %3, align 8, !tbaa !12
  store ptr %1, ptr %4, align 8, !tbaa !30
  call void @llvm.lifetime.start.p0(i64 4, ptr %5) #11
  call void @llvm.lifetime.start.p0(i64 4, ptr %6) #11
  %8 = load ptr, ptr %4, align 8, !tbaa !30
  %9 = getelementptr inbounds float, ptr %8, i64 0
  %10 = load float, ptr %9, align 4, !tbaa !32
  %11 = load ptr, ptr %4, align 8, !tbaa !30
  %12 = getelementptr inbounds float, ptr %11, i64 1
  %13 = load float, ptr %12, align 4, !tbaa !32
  %14 = load ptr, ptr %4, align 8, !tbaa !30
  %15 = getelementptr inbounds float, ptr %14, i64 2
  %16 = load float, ptr %15, align 4, !tbaa !32
  %17 = fcmp ogt float %13, %16
  br i1 %17, label %18, label %22

18:                                               ; preds = %2
  %19 = load ptr, ptr %4, align 8, !tbaa !30
  %20 = getelementptr inbounds float, ptr %19, i64 1
  %21 = load float, ptr %20, align 4, !tbaa !32
  br label %26

22:                                               ; preds = %2
  %23 = load ptr, ptr %4, align 8, !tbaa !30
  %24 = getelementptr inbounds float, ptr %23, i64 2
  %25 = load float, ptr %24, align 4, !tbaa !32
  br label %26

26:                                               ; preds = %22, %18
  %27 = phi float [ %21, %18 ], [ %25, %22 ]
  %28 = fcmp ogt float %10, %27
  br i1 %28, label %29, label %33

29:                                               ; preds = %26
  %30 = load ptr, ptr %4, align 8, !tbaa !30
  %31 = getelementptr inbounds float, ptr %30, i64 0
  %32 = load float, ptr %31, align 4, !tbaa !32
  br label %51

33:                                               ; preds = %26
  %34 = load ptr, ptr %4, align 8, !tbaa !30
  %35 = getelementptr inbounds float, ptr %34, i64 1
  %36 = load float, ptr %35, align 4, !tbaa !32
  %37 = load ptr, ptr %4, align 8, !tbaa !30
  %38 = getelementptr inbounds float, ptr %37, i64 2
  %39 = load float, ptr %38, align 4, !tbaa !32
  %40 = fcmp ogt float %36, %39
  br i1 %40, label %41, label %45

41:                                               ; preds = %33
  %42 = load ptr, ptr %4, align 8, !tbaa !30
  %43 = getelementptr inbounds float, ptr %42, i64 1
  %44 = load float, ptr %43, align 4, !tbaa !32
  br label %49

45:                                               ; preds = %33
  %46 = load ptr, ptr %4, align 8, !tbaa !30
  %47 = getelementptr inbounds float, ptr %46, i64 2
  %48 = load float, ptr %47, align 4, !tbaa !32
  br label %49

49:                                               ; preds = %45, %41
  %50 = phi float [ %44, %41 ], [ %48, %45 ]
  br label %51

51:                                               ; preds = %49, %29
  %52 = phi float [ %32, %29 ], [ %50, %49 ]
  store float %52, ptr %6, align 4, !tbaa !32
  %53 = load float, ptr %6, align 4, !tbaa !32
  %54 = fcmp olt float %53, 0x3949F623E0000000
  br i1 %54, label %55, label %64

55:                                               ; preds = %51
  %56 = load ptr, ptr %3, align 8, !tbaa !12
  %57 = getelementptr inbounds i8, ptr %56, i64 3
  store i8 0, ptr %57, align 1, !tbaa !18
  %58 = load ptr, ptr %3, align 8, !tbaa !12
  %59 = getelementptr inbounds i8, ptr %58, i64 2
  store i8 0, ptr %59, align 1, !tbaa !18
  %60 = load ptr, ptr %3, align 8, !tbaa !12
  %61 = getelementptr inbounds i8, ptr %60, i64 1
  store i8 0, ptr %61, align 1, !tbaa !18
  %62 = load ptr, ptr %3, align 8, !tbaa !12
  %63 = getelementptr inbounds i8, ptr %62, i64 0
  store i8 0, ptr %63, align 1, !tbaa !18
  br label %101

64:                                               ; preds = %51
  call void @llvm.lifetime.start.p0(i64 4, ptr %7) #11
  %65 = load float, ptr %6, align 4, !tbaa !32
  %66 = fpext float %65 to double
  %67 = call double @frexp(double noundef %66, ptr noundef %5) #11
  %68 = fptrunc double %67 to float
  %69 = fmul float %68, 2.560000e+02
  %70 = load float, ptr %6, align 4, !tbaa !32
  %71 = fdiv float %69, %70
  store float %71, ptr %7, align 4, !tbaa !32
  %72 = load ptr, ptr %4, align 8, !tbaa !30
  %73 = getelementptr inbounds float, ptr %72, i64 0
  %74 = load float, ptr %73, align 4, !tbaa !32
  %75 = load float, ptr %7, align 4, !tbaa !32
  %76 = fmul float %74, %75
  %77 = fptoui float %76 to i8
  %78 = load ptr, ptr %3, align 8, !tbaa !12
  %79 = getelementptr inbounds i8, ptr %78, i64 0
  store i8 %77, ptr %79, align 1, !tbaa !18
  %80 = load ptr, ptr %4, align 8, !tbaa !30
  %81 = getelementptr inbounds float, ptr %80, i64 1
  %82 = load float, ptr %81, align 4, !tbaa !32
  %83 = load float, ptr %7, align 4, !tbaa !32
  %84 = fmul float %82, %83
  %85 = fptoui float %84 to i8
  %86 = load ptr, ptr %3, align 8, !tbaa !12
  %87 = getelementptr inbounds i8, ptr %86, i64 1
  store i8 %85, ptr %87, align 1, !tbaa !18
  %88 = load ptr, ptr %4, align 8, !tbaa !30
  %89 = getelementptr inbounds float, ptr %88, i64 2
  %90 = load float, ptr %89, align 4, !tbaa !32
  %91 = load float, ptr %7, align 4, !tbaa !32
  %92 = fmul float %90, %91
  %93 = fptoui float %92 to i8
  %94 = load ptr, ptr %3, align 8, !tbaa !12
  %95 = getelementptr inbounds i8, ptr %94, i64 2
  store i8 %93, ptr %95, align 1, !tbaa !18
  %96 = load i32, ptr %5, align 4, !tbaa !3
  %97 = add nsw i32 %96, 128
  %98 = trunc i32 %97 to i8
  %99 = load ptr, ptr %3, align 8, !tbaa !12
  %100 = getelementptr inbounds i8, ptr %99, i64 3
  store i8 %98, ptr %100, align 1, !tbaa !18
  call void @llvm.lifetime.end.p0(i64 4, ptr %7) #11
  br label %101

101:                                              ; preds = %64, %55
  call void @llvm.lifetime.end.p0(i64 4, ptr %6) #11
  call void @llvm.lifetime.end.p0(i64 4, ptr %5) #11
  ret void
}