; Function Attrs: mustprogress nofree nounwind willreturn memory(argmem: readwrite) uwtable
define void @stbiw__linear_to_rgbe(ptr noundef writeonly captures(none) initializes((0, 4)) %0, ptr noundef readonly captures(none) %1) local_unnamed_addr #9 {
  %3 = alloca i32, align 4
  call void @llvm.lifetime.start.p0(i64 4, ptr nonnull %3) #26
  %4 = load float, ptr %1, align 4, !tbaa !23
  %5 = getelementptr inbounds nuw i8, ptr %1, i64 4
  %6 = load float, ptr %5, align 4, !tbaa !23
  %7 = getelementptr inbounds nuw i8, ptr %1, i64 8
  %8 = load float, ptr %7, align 4, !tbaa !23
  %9 = fcmp ogt float %6, %8
  %. = select i1 %9, float %6, float %8
  %10 = fcmp ogt float %4, %.
  %11 = select i1 %10, float %4, float %.
  %12 = fcmp olt float %11, 0x3949F623E0000000
  br i1 %12, label %13, label %15

13:                                               ; preds = %2
  %14 = getelementptr inbounds nuw i8, ptr %0, i64 1
  store i8 0, ptr %14, align 1, !tbaa !11
  store i8 0, ptr %0, align 1, !tbaa !11
  br label %33

15:                                               ; preds = %2
  %16 = fpext float %11 to double
  %17 = call double @frexp(double noundef %16, ptr noundef nonnull %3) #26
  %18 = fptrunc double %17 to float
  %19 = fmul float %18, 2.560000e+02
  %20 = fdiv float %19, %11
  %21 = fmul float %4, %20
  %22 = fptoui float %21 to i8
  store i8 %22, ptr %0, align 1, !tbaa !11
  %23 = load float, ptr %5, align 4, !tbaa !23
  %24 = fmul float %23, %20
  %25 = fptoui float %24 to i8
  %26 = getelementptr inbounds nuw i8, ptr %0, i64 1
  store i8 %25, ptr %26, align 1, !tbaa !11
  %27 = load float, ptr %7, align 4, !tbaa !23
  %28 = fmul float %20, %27
  %29 = fptoui float %28 to i8
  %30 = load i32, ptr %3, align 4, !tbaa !3
  %31 = trunc i32 %30 to i8
  %32 = xor i8 %31, -128
  br label %33

33:                                               ; preds = %15, %13
  %.sink32 = phi i8 [ 0, %13 ], [ %32, %15 ]
  %.sink = phi i8 [ 0, %13 ], [ %29, %15 ]
  %34 = getelementptr inbounds nuw i8, ptr %0, i64 3
  store i8 %.sink32, ptr %34, align 1, !tbaa !11
  %35 = getelementptr inbounds nuw i8, ptr %0, i64 2
  store i8 %.sink, ptr %35, align 1, !tbaa !11
  call void @llvm.lifetime.end.p0(i64 4, ptr nonnull %3) #26
  ret void
}